; Function Attrs: nofree norecurse nosync nounwind memory(argmem: read) uwtable
define i32 @Gia_ManEarliest(ptr noundef readonly captures(none) %0, i32 noundef %1) local_unnamed_addr #13 {
  %3 = icmp sgt i32 %1, 0
  br i1 %3, label %.lr.ph.preheader, label %._crit_edge

.lr.ph.preheader:                                 ; preds = %2
  %wide.trip.count = zext nneg i32 %1 to i64
  br label %.lr.ph

.lr.ph:                                           ; preds = %.lr.ph.preheader, %.lr.ph
  %indvars.iv = phi i64 [ 0, %.lr.ph.preheader ], [ %indvars.iv.next, %.lr.ph ]
  %.016 = phi i32 [ -1, %.lr.ph.preheader ], [ %spec.select13, %.lr.ph ]
  %.0915 = phi i32 [ 1000000000, %.lr.ph.preheader ], [ %spec.select, %.lr.ph ]
  %4 = getelementptr inbounds nuw i32, ptr %0, i64 %indvars.iv
  %5 = load i32, ptr %4, align 4, !tbaa !11
  %6 = icmp sgt i32 %.0915, %5
  %spec.select = tail call i32 @llvm.smin.i32(i32 %.0915, i32 %5)
  %7 = trunc nuw nsw i64 %indvars.iv to i32
  %spec.select13 = select i1 %6, i32 %7, i32 %.016
  %indvars.iv.next = add nuw nsw i64 %indvars.iv, 1
  %exitcond.not = icmp eq i64 %indvars.iv.next, %wide.trip.count
  br i1 %exitcond.not, label %._crit_edge, label %.lr.ph, !llvm.loop !84

._crit_edge:                                      ; preds = %.lr.ph, %2
  %.0.lcssa = phi i32 [ -1, %2 ], [ %spec.select13, %.lr.ph ]
  ret i32 %.0.lcssa
}